; Function Attrs: mustprogress uwtable
define hidden noundef zeroext i1 @_ZNK16PJCoordOperation14isInstantiableEv(ptr nocapture noundef nonnull align 8 dereferenceable(188) %0) local_unnamed_addr #1 align 2 {
  %2 = getelementptr inbounds i8, ptr %0, i64 184
  %3 = load i32, ptr %2, align 8
  %4 = icmp eq i32 %3, -1
  br i1 %4, label %5, label %10

5:                                                ; preds = %1
  %6 = getelementptr inbounds i8, ptr %0, i64 72
  %7 = load ptr, ptr %6, align 8
  %8 = load ptr, ptr %7, align 8
  %9 = tail call i32 @proj_coordoperation_is_instantiable(ptr noundef %8, ptr noundef nonnull %7)
  store i32 %9, ptr %2, align 8
  br label %10

10:                                               ; preds = %5, %1
  %11 = phi i32 [ %9, %5 ], [ %3, %1 ]
  %12 = icmp eq i32 %11, 1
  ret i1 %12
}